; Function Attrs: nounwind uwtable
define noundef zeroext i1 @lv_rb_drop(ptr noundef captures(address_is_null) %0, ptr noundef %1) local_unnamed_addr #0 {
  %.not = icmp eq ptr %0, null
  br i1 %.not, label %.preheader, label %.preheader23.i.i

.preheader:                                       ; preds = %2, %.preheader
  br label %.preheader

.preheader23.i.i:                                 ; preds = %2
  %3 = getelementptr inbounds nuw i8, ptr %0, i64 8
  %.01424.i.i = load ptr, ptr %0, align 8, !tbaa !12
  %.not1925.i.i = icmp eq ptr %.01424.i.i, null
  br i1 %.not1925.i.i, label %lv_rb_find.exit.i.preheader, label %.lr.ph.i.i

.lr.ph.i.i:                                       ; preds = %.preheader23.i.i, %8
  %.01426.i.i = phi ptr [ %.014.i.i, %8 ], [ %.01424.i.i, %.preheader23.i.i ]
  %4 = load ptr, ptr %3, align 8, !tbaa !10
  %5 = getelementptr inbounds nuw i8, ptr %.01426.i.i, i64 32
  %6 = load ptr, ptr %5, align 8, !tbaa !13
  %7 = tail call signext i8 %4(ptr noundef %1, ptr noundef %6) #5
  %.not20.i.i = icmp eq i8 %7, 0
  br i1 %.not20.i.i, label %lv_rb_remove.exit, label %8

8:                                                ; preds = %.lr.ph.i.i
  %9 = icmp slt i8 %7, 0
  %.216.in.v.i.i = select i1 %9, i64 8, i64 16
  %.216.in.i.i = getelementptr inbounds nuw i8, ptr %.01426.i.i, i64 %.216.in.v.i.i
  %.014.i.i = load ptr, ptr %.216.in.i.i, align 8, !tbaa !12
  %.not19.i.i = icmp eq ptr %.014.i.i, null
  br i1 %.not19.i.i, label %lv_rb_find.exit.i.preheader, label %.lr.ph.i.i, !llvm.loop !16

lv_rb_find.exit.i.preheader:                      ; preds = %8, %.preheader23.i.i
  br label %lv_rb_find.exit.i

lv_rb_find.exit.i:                                ; preds = %lv_rb_find.exit.i.preheader, %lv_rb_find.exit.i
  br label %lv_rb_find.exit.i

lv_rb_remove.exit:                                ; preds = %.lr.ph.i.i
  %10 = tail call ptr @lv_rb_remove_node(ptr noundef nonnull %0, ptr noundef nonnull %.01426.i.i)
  %.not9 = icmp ne ptr %10, null
  br i1 %.not9, label %11, label %12

11:                                               ; preds = %lv_rb_remove.exit
  tail call void @lv_free(ptr noundef nonnull %10) #5
  br label %12

12:                                               ; preds = %11, %lv_rb_remove.exit
  ret i1 %.not9
}